target datalayout = "e-m:e-p270:32:32-p271:32:32-p272:64:64-i64:64-i128:128-f80:128-n8:16:32:64-S128"
target triple = "x86_64-pc-linux-gnu"

@environ = external global ptr, align 8

; Function Attrs: inlinehint nounwind uwtable
define internal i64 @PointerGetDatum(ptr noundef %0) #2 {
  %2 = alloca ptr, align 8
  store ptr %0, ptr %2, align 8
  %3 = load ptr, ptr %2, align 8
  %4 = ptrtoint ptr %3 to i64
  ret i64 %4
}

; Function Attrs: nounwind uwtable
define i64 @get_environ(ptr noundef %0) #0 {
  %2 = alloca ptr, align 8
  %3 = alloca i32, align 4
  %4 = alloca ptr, align 8
  %5 = alloca ptr, align 8
  %6 = alloca ptr, align 8
  %7 = alloca i32, align 4
  store ptr %0, ptr %2, align 8
  call void @llvm.lifetime.start.p0(i64 4, ptr %3) #13
  store i32 0, ptr %3, align 4
  call void @llvm.lifetime.start.p0(i64 8, ptr %4) #13
  call void @llvm.lifetime.start.p0(i64 8, ptr %5) #13
  call void @llvm.lifetime.start.p0(i64 8, ptr %6) #13
  %8 = load ptr, ptr @environ, align 8
  store ptr %8, ptr %6, align 8
  br label %9

9:                                                ; preds = %17, %1
  %10 = load ptr, ptr %6, align 8
  %11 = load ptr, ptr %10, align 8
  %12 = icmp ne ptr %11, null
  br i1 %12, label %14, label %13

13:                                               ; preds = %9
  call void @llvm.lifetime.end.p0(i64 8, ptr %6) #13
  br label %20

14:                                               ; preds = %9
  %15 = load i32, ptr %3, align 4
  %16 = add i32 %15, 1
  store i32 %16, ptr %3, align 4
  br label %17

17:                                               ; preds = %14
  %18 = load ptr, ptr %6, align 8
  %19 = getelementptr inbounds nuw ptr, ptr %18, i32 1
  store ptr %19, ptr %6, align 8
  br label %9, !llvm.loop !16

20:                                               ; preds = %13
  %21 = load i32, ptr %3, align 4
  %22 = sext i32 %21 to i64
  %23 = mul i64 %22, 8
  %24 = call ptr @palloc(i64 noundef %23)
  store ptr %24, ptr %5, align 8
  call void @llvm.lifetime.start.p0(i64 4, ptr %7) #13
  store i32 0, ptr %7, align 4
  br label %25

25:                                               ; preds = %42, %20
  %26 = load i32, ptr %7, align 4
  %27 = load i32, ptr %3, align 4
  %28 = icmp slt i32 %26, %27
  br i1 %28, label %30, label %29

29:                                               ; preds = %25
  call void @llvm.lifetime.end.p0(i64 4, ptr %7) #13
  br label %45

30:                                               ; preds = %25
  %31 = load ptr, ptr @environ, align 8
  %32 = load i32, ptr %7, align 4
  %33 = sext i32 %32 to i64
  %34 = getelementptr inbounds ptr, ptr %31, i64 %33
  %35 = load ptr, ptr %34, align 8
  %36 = call ptr @cstring_to_text(ptr noundef %35)
  %37 = call i64 @PointerGetDatum(ptr noundef %36)
  %38 = load ptr, ptr %5, align 8
  %39 = load i32, ptr %7, align 4
  %40 = sext i32 %39 to i64
  %41 = getelementptr inbounds i64, ptr %38, i64 %40
  store i64 %37, ptr %41, align 8
  br label %42

42:                                               ; preds = %30
  %43 = load i32, ptr %7, align 4
  %44 = add i32 %43, 1
  store i32 %44, ptr %7, align 4
  br label %25, !llvm.loop !17

45:                                               ; preds = %29
  %46 = load ptr, ptr %5, align 8
  %47 = load i32, ptr %3, align 4
  %48 = call ptr @construct_array_builtin(ptr noundef %46, i32 noundef %47, i32 noundef 25)
  store ptr %48, ptr %4, align 8
  %49 = load ptr, ptr %4, align 8
  %50 = call i64 @PointerGetDatum(ptr noundef %49)
  call void @llvm.lifetime.end.p0(i64 8, ptr %5) #13
  call void @llvm.lifetime.end.p0(i64 8, ptr %4) #13
  call void @llvm.lifetime.end.p0(i64 4, ptr %3) #13
  ret i64 %50
}