; Function Attrs: nounwind uwtable
define i64 @get_environ(ptr noundef readnone captures(none) %0) local_unnamed_addr #1 {
  %2 = load ptr, ptr @environ, align 8
  %3 = load ptr, ptr %2, align 8
  %.not14 = icmp eq ptr %3, null
  br i1 %.not14, label %._crit_edge, label %.lr.ph

._crit_edge:                                      ; preds = %.lr.ph, %1
  %.013.lcssa = phi i32 [ 0, %1 ], [ %8, %.lr.ph ]
  %4 = sext i32 %.013.lcssa to i64
  %5 = shl nsw i64 %4, 3
  %6 = tail call ptr @palloc(i64 noundef %5) #18
  %7 = icmp sgt i32 %.013.lcssa, 0
  br i1 %7, label %.lr.ph19.preheader, label %._crit_edge20

.lr.ph19.preheader:                               ; preds = %._crit_edge
  %wide.trip.count = zext nneg i32 %.013.lcssa to i64
  br label %.lr.ph19

.lr.ph:                                           ; preds = %1, %.lr.ph
  %.01216 = phi ptr [ %9, %.lr.ph ], [ %2, %1 ]
  %.01315 = phi i32 [ %8, %.lr.ph ], [ 0, %1 ]
  %8 = add i32 %.01315, 1
  %9 = getelementptr inbounds nuw i8, ptr %.01216, i64 8
  %10 = load ptr, ptr %9, align 8
  %.not = icmp eq ptr %10, null
  br i1 %.not, label %._crit_edge, label %.lr.ph, !llvm.loop !15

._crit_edge20:                                    ; preds = %.lr.ph19, %._crit_edge
  %11 = tail call ptr @construct_array_builtin(ptr noundef %6, i32 noundef %.013.lcssa, i32 noundef 25) #18
  %12 = ptrtoint ptr %11 to i64
  ret i64 %12

.lr.ph19:                                         ; preds = %.lr.ph19.preheader, %.lr.ph19
  %indvars.iv = phi i64 [ 0, %.lr.ph19.preheader ], [ %indvars.iv.next, %.lr.ph19 ]
  %13 = load ptr, ptr @environ, align 8
  %14 = getelementptr inbounds nuw ptr, ptr %13, i64 %indvars.iv
  %15 = load ptr, ptr %14, align 8
  %16 = tail call ptr @cstring_to_text(ptr noundef %15) #18
  %17 = ptrtoint ptr %16 to i64
  %18 = getelementptr inbounds nuw i64, ptr %6, i64 %indvars.iv
  store i64 %17, ptr %18, align 8
  %indvars.iv.next = add nuw nsw i64 %indvars.iv, 1
  %exitcond.not = icmp eq i64 %indvars.iv.next, %wide.trip.count
  br i1 %exitcond.not, label %._crit_edge20, label %.lr.ph19, !llvm.loop !16
}